target datalayout = "e-m:e-p270:32:32-p271:32:32-p272:64:64-i64:64-i128:128-f80:128-n8:16:32:64-S128"
target triple = "x86_64-pc-linux-gnu"

%struct.blake2sp_state__ = type { [8 x [1 x %struct.blake2s_state__]], [1 x %struct.blake2s_state__], [512 x i8], i64, i64 }
%struct.blake2s_state__ = type { [8 x i32], [2 x i32], [2 x i32], [64 x i8], i64, i64, i8 }

; Function Attrs: nounwind uwtable
define dso_local i32 @blake2sp_update(ptr noundef %0, ptr noundef %1, i64 noundef %2) #0 {
  %4 = alloca ptr, align 8
  %5 = alloca ptr, align 8
  %6 = alloca i64, align 8
  %7 = alloca ptr, align 8
  %8 = alloca i64, align 8
  %9 = alloca i64, align 8
  %10 = alloca i64, align 8
  %11 = alloca i64, align 8
  %12 = alloca ptr, align 8
  store ptr %0, ptr %4, align 8, !tbaa !4
  store ptr %1, ptr %5, align 8, !tbaa !30
  store i64 %2, ptr %6, align 8, !tbaa !9
  call void @llvm.lifetime.start.p0(i64 8, ptr %7) #7
  %13 = load ptr, ptr %5, align 8, !tbaa !30
  store ptr %13, ptr %7, align 8, !tbaa !33
  call void @llvm.lifetime.start.p0(i64 8, ptr %8) #7
  %14 = load ptr, ptr %4, align 8, !tbaa !4
  %15 = getelementptr inbounds nuw %struct.blake2sp_state__, ptr %14, i32 0, i32 3
  %16 = load i64, ptr %15, align 8, !tbaa !11
  store i64 %16, ptr %8, align 8, !tbaa !9
  call void @llvm.lifetime.start.p0(i64 8, ptr %9) #7
  %17 = load i64, ptr %8, align 8, !tbaa !9
  %18 = sub i64 512, %17
  store i64 %18, ptr %9, align 8, !tbaa !9
  call void @llvm.lifetime.start.p0(i64 8, ptr %10) #7
  %19 = load i64, ptr %8, align 8, !tbaa !9
  %20 = icmp ne i64 %19, 0
  br i1 %20, label %21, label %59

21:                                               ; preds = %3
  %22 = load i64, ptr %6, align 8, !tbaa !9
  %23 = load i64, ptr %9, align 8, !tbaa !9
  %24 = icmp uge i64 %22, %23
  br i1 %24, label %25, label %59

25:                                               ; preds = %21
  %26 = load ptr, ptr %4, align 8, !tbaa !4
  %27 = getelementptr inbounds nuw %struct.blake2sp_state__, ptr %26, i32 0, i32 2
  %28 = getelementptr inbounds [512 x i8], ptr %27, i64 0, i64 0
  %29 = load i64, ptr %8, align 8, !tbaa !9
  %30 = getelementptr inbounds nuw i8, ptr %28, i64 %29
  %31 = load ptr, ptr %7, align 8, !tbaa !33
  %32 = load i64, ptr %9, align 8, !tbaa !9
  call void @llvm.memcpy.p0.p0.i64(ptr align 1 %30, ptr align 1 %31, i64 %32, i1 false)
  store i64 0, ptr %10, align 8, !tbaa !9
  br label %33

33:                                               ; preds = %49, %25
  %34 = load i64, ptr %10, align 8, !tbaa !9
  %35 = icmp ult i64 %34, 8
  br i1 %35, label %36, label %52

36:                                               ; preds = %33
  %37 = load ptr, ptr %4, align 8, !tbaa !4
  %38 = getelementptr inbounds nuw %struct.blake2sp_state__, ptr %37, i32 0, i32 0
  %39 = load i64, ptr %10, align 8, !tbaa !9
  %40 = getelementptr inbounds nuw [8 x [1 x %struct.blake2s_state__]], ptr %38, i64 0, i64 %39
  %41 = getelementptr inbounds [1 x %struct.blake2s_state__], ptr %40, i64 0, i64 0
  %42 = load ptr, ptr %4, align 8, !tbaa !4
  %43 = getelementptr inbounds nuw %struct.blake2sp_state__, ptr %42, i32 0, i32 2
  %44 = getelementptr inbounds [512 x i8], ptr %43, i64 0, i64 0
  %45 = load i64, ptr %10, align 8, !tbaa !9
  %46 = mul i64 %45, 64
  %47 = getelementptr inbounds nuw i8, ptr %44, i64 %46
  %48 = call i32 @blake2s_update(ptr noundef %41, ptr noundef %47, i64 noundef 64)
  br label %49

49:                                               ; preds = %36
  %50 = load i64, ptr %10, align 8, !tbaa !9
  %51 = add i64 %50, 1
  store i64 %51, ptr %10, align 8, !tbaa !9
  br label %33, !llvm.loop !35

52:                                               ; preds = %33
  %53 = load i64, ptr %9, align 8, !tbaa !9
  %54 = load ptr, ptr %7, align 8, !tbaa !33
  %55 = getelementptr inbounds nuw i8, ptr %54, i64 %53
  store ptr %55, ptr %7, align 8, !tbaa !33
  %56 = load i64, ptr %9, align 8, !tbaa !9
  %57 = load i64, ptr %6, align 8, !tbaa !9
  %58 = sub i64 %57, %56
  store i64 %58, ptr %6, align 8, !tbaa !9
  store i64 0, ptr %8, align 8, !tbaa !9
  br label %59

59:                                               ; preds = %52, %21, %3
  store i64 0, ptr %10, align 8, !tbaa !9
  br label %60

60:                                               ; preds = %86, %59
  %61 = load i64, ptr %10, align 8, !tbaa !9
  %62 = icmp ult i64 %61, 8
  br i1 %62, label %63, label %89

63:                                               ; preds = %60
  call void @llvm.lifetime.start.p0(i64 8, ptr %11) #7
  %64 = load i64, ptr %6, align 8, !tbaa !9
  store i64 %64, ptr %11, align 8, !tbaa !9
  call void @llvm.lifetime.start.p0(i64 8, ptr %12) #7
  %65 = load ptr, ptr %7, align 8, !tbaa !33
  store ptr %65, ptr %12, align 8, !tbaa !33
  %66 = load i64, ptr %10, align 8, !tbaa !9
  %67 = mul i64 %66, 64
  %68 = load ptr, ptr %12, align 8, !tbaa !33
  %69 = getelementptr inbounds nuw i8, ptr %68, i64 %67
  store ptr %69, ptr %12, align 8, !tbaa !33
  br label %70

70:                                               ; preds = %73, %63
  %71 = load i64, ptr %11, align 8, !tbaa !9
  %72 = icmp uge i64 %71, 512
  br i1 %72, label %73, label %85

73:                                               ; preds = %70
  %74 = load ptr, ptr %4, align 8, !tbaa !4
  %75 = getelementptr inbounds nuw %struct.blake2sp_state__, ptr %74, i32 0, i32 0
  %76 = load i64, ptr %10, align 8, !tbaa !9
  %77 = getelementptr inbounds nuw [8 x [1 x %struct.blake2s_state__]], ptr %75, i64 0, i64 %76
  %78 = getelementptr inbounds [1 x %struct.blake2s_state__], ptr %77, i64 0, i64 0
  %79 = load ptr, ptr %12, align 8, !tbaa !33
  %80 = call i32 @blake2s_update(ptr noundef %78, ptr noundef %79, i64 noundef 64)
  %81 = load ptr, ptr %12, align 8, !tbaa !33
  %82 = getelementptr inbounds i8, ptr %81, i64 512
  store ptr %82, ptr %12, align 8, !tbaa !33
  %83 = load i64, ptr %11, align 8, !tbaa !9
  %84 = sub i64 %83, 512
  store i64 %84, ptr %11, align 8, !tbaa !9
  br label %70, !llvm.loop !36

85:                                               ; preds = %70
  call void @llvm.lifetime.end.p0(i64 8, ptr %12) #7
  call void @llvm.lifetime.end.p0(i64 8, ptr %11) #7
  br label %86

86:                                               ; preds = %85
  %87 = load i64, ptr %10, align 8, !tbaa !9
  %88 = add i64 %87, 1
  store i64 %88, ptr %10, align 8, !tbaa !9
  br label %60, !llvm.loop !37

89:                                               ; preds = %60
  %90 = load i64, ptr %6, align 8, !tbaa !9
  %91 = load i64, ptr %6, align 8, !tbaa !9
  %92 = urem i64 %91, 512
  %93 = sub i64 %90, %92
  %94 = load ptr, ptr %7, align 8, !tbaa !33
  %95 = getelementptr inbounds nuw i8, ptr %94, i64 %93
  store ptr %95, ptr %7, align 8, !tbaa !33
  %96 = load i64, ptr %6, align 8, !tbaa !9
  %97 = urem i64 %96, 512
  store i64 %97, ptr %6, align 8, !tbaa !9
  %98 = load i64, ptr %6, align 8, !tbaa !9
  %99 = icmp ugt i64 %98, 0
  br i1 %99, label %100, label %108

100:                                              ; preds = %89
  %101 = load ptr, ptr %4, align 8, !tbaa !4
  %102 = getelementptr inbounds nuw %struct.blake2sp_state__, ptr %101, i32 0, i32 2
  %103 = getelementptr inbounds [512 x i8], ptr %102, i64 0, i64 0
  %104 = load i64, ptr %8, align 8, !tbaa !9
  %105 = getelementptr inbounds nuw i8, ptr %103, i64 %104
  %106 = load ptr, ptr %7, align 8, !tbaa !33
  %107 = load i64, ptr %6, align 8, !tbaa !9
  call void @llvm.memcpy.p0.p0.i64(ptr align 1 %105, ptr align 1 %106, i64 %107, i1 false)
  br label %108

108:                                              ; preds = %100, %89
  %109 = load i64, ptr %8, align 8, !tbaa !9
  %110 = load i64, ptr %6, align 8, !tbaa !9
  %111 = add i64 %109, %110
  %112 = load ptr, ptr %4, align 8, !tbaa !4
  %113 = getelementptr inbounds nuw %struct.blake2sp_state__, ptr %112, i32 0, i32 3
  store i64 %111, ptr %113, align 8, !tbaa !11
  call void @llvm.lifetime.end.p0(i64 8, ptr %10) #7
  call void @llvm.lifetime.end.p0(i64 8, ptr %9) #7
  call void @llvm.lifetime.end.p0(i64 8, ptr %8) #7
  call void @llvm.lifetime.end.p0(i64 8, ptr %7) #7
  ret i32 0
}