; Function Attrs: nounwind uwtable
define dso_local noundef i32 @blake2sp_update(ptr noundef %0, ptr noundef %1, i64 noundef %2) local_unnamed_addr #0 {
  %4 = getelementptr inbounds nuw i8, ptr %0, i64 1736
  %5 = load i64, ptr %4, align 8, !tbaa !28
  %6 = sub i64 512, %5
  %.not = icmp eq i64 %5, 0
  br i1 %.not, label %20, label %7

7:                                                ; preds = %3
  %.not54 = icmp ult i64 %2, %6
  br i1 %.not54, label %20, label %8

8:                                                ; preds = %7
  %9 = getelementptr inbounds nuw i8, ptr %0, i64 1224
  %10 = getelementptr inbounds nuw i8, ptr %9, i64 %5
  tail call void @llvm.memcpy.p0.p0.i64(ptr nonnull align 1 %10, ptr align 1 %1, i64 %6, i1 false)
  br label %11

11:                                               ; preds = %8, %11
  %.04456 = phi i64 [ 0, %8 ], [ %16, %11 ]
  %12 = getelementptr inbounds nuw [8 x [1 x %struct.blake2s_state__]], ptr %0, i64 0, i64 %.04456
  %13 = shl nuw nsw i64 %.04456, 6
  %14 = getelementptr inbounds nuw i8, ptr %9, i64 %13
  %15 = tail call i32 @blake2s_update(ptr noundef %12, ptr noundef nonnull %14, i64 noundef 64) #7
  %16 = add nuw nsw i64 %.04456, 1
  %exitcond.not = icmp eq i64 %16, 8
  br i1 %exitcond.not, label %17, label %11, !llvm.loop !29

17:                                               ; preds = %11
  %18 = getelementptr inbounds nuw i8, ptr %1, i64 %6
  %19 = sub i64 %2, %6
  br label %20

20:                                               ; preds = %17, %7, %3
  %.047 = phi ptr [ %18, %17 ], [ %1, %7 ], [ %1, %3 ]
  %.046 = phi i64 [ 0, %17 ], [ %5, %7 ], [ 0, %3 ]
  %.045 = phi i64 [ %19, %17 ], [ %2, %7 ], [ %2, %3 ]
  %21 = icmp ugt i64 %.045, 511
  br i1 %21, label %.lr.ph.us, label %.split61.us

.lr.ph.us:                                        ; preds = %20, %._crit_edge.us
  %.159.us = phi i64 [ %30, %._crit_edge.us ], [ 0, %20 ]
  %22 = shl nuw nsw i64 %.159.us, 6
  %23 = getelementptr inbounds nuw i8, ptr %.047, i64 %22
  %24 = getelementptr inbounds nuw [8 x [1 x %struct.blake2s_state__]], ptr %0, i64 0, i64 %.159.us
  br label %25

25:                                               ; preds = %.lr.ph.us, %25
  %.058.us = phi ptr [ %23, %.lr.ph.us ], [ %27, %25 ]
  %.04357.us = phi i64 [ %.045, %.lr.ph.us ], [ %28, %25 ]
  %26 = tail call i32 @blake2s_update(ptr noundef %24, ptr noundef %.058.us, i64 noundef 64) #7
  %27 = getelementptr inbounds nuw i8, ptr %.058.us, i64 512
  %28 = add i64 %.04357.us, -512
  %29 = icmp ugt i64 %28, 511
  br i1 %29, label %25, label %._crit_edge.us, !llvm.loop !30

._crit_edge.us:                                   ; preds = %25
  %30 = add nuw nsw i64 %.159.us, 1
  %exitcond63.not = icmp eq i64 %30, 8
  br i1 %exitcond63.not, label %.split61.us, label %.lr.ph.us, !llvm.loop !31

.split61.us:                                      ; preds = %._crit_edge.us, %20
  %31 = and i64 %.045, 511
  %.not55 = icmp eq i64 %31, 0
  br i1 %.not55, label %37, label %32

32:                                               ; preds = %.split61.us
  %33 = and i64 %.045, -512
  %34 = getelementptr inbounds nuw i8, ptr %.047, i64 %33
  %35 = getelementptr inbounds nuw i8, ptr %0, i64 1224
  %36 = getelementptr inbounds nuw i8, ptr %35, i64 %.046
  tail call void @llvm.memcpy.p0.p0.i64(ptr nonnull align 1 %36, ptr align 1 %34, i64 %31, i1 false)
  br label %37

37:                                               ; preds = %32, %.split61.us
  %38 = add i64 %31, %.046
  store i64 %38, ptr %4, align 8, !tbaa !28
  ret i32 0
}